target datalayout = "e-m:e-p270:32:32-p271:32:32-p272:64:64-i64:64-i128:128-f80:128-n8:16:32:64-S128"
target triple = "x86_64-pc-linux-gnu"

@_ZZ10cvErrorStrE3buf = internal global [256 x i8] zeroinitializer, align 16
@.str.23 = private unnamed_addr constant [9 x i8] c"No Error\00", align 1
@.str.24 = private unnamed_addr constant [10 x i8] c"Backtrace\00", align 1
@.str.25 = private unnamed_addr constant [18 x i8] c"Unspecified error\00", align 1
@.str.26 = private unnamed_addr constant [15 x i8] c"Internal error\00", align 1
@.str.27 = private unnamed_addr constant [20 x i8] c"Insufficient memory\00", align 1
@.str.28 = private unnamed_addr constant [13 x i8] c"Bad argument\00", align 1
@.str.29 = private unnamed_addr constant [27 x i8] c"Iterations do not converge\00", align 1
@.str.30 = private unnamed_addr constant [15 x i8] c"Autotrace call\00", align 1
@.str.31 = private unnamed_addr constant [30 x i8] c"Incorrect size of input array\00", align 1
@.str.32 = private unnamed_addr constant [13 x i8] c"Null pointer\00", align 1
@.str.33 = private unnamed_addr constant [26 x i8] c"Division by zero occurred\00", align 1
@.str.34 = private unnamed_addr constant [20 x i8] c"Image step is wrong\00", align 1
@.str.35 = private unnamed_addr constant [35 x i8] c"Inplace operation is not supported\00", align 1
@.str.36 = private unnamed_addr constant [31 x i8] c"Requested object was not found\00", align 1
@.str.37 = private unnamed_addr constant [47 x i8] c"Input image depth is not supported by function\00", align 1
@.str.38 = private unnamed_addr constant [40 x i8] c"Formats of input arguments do not match\00", align 1
@.str.39 = private unnamed_addr constant [38 x i8] c"Sizes of input arguments do not match\00", align 1
@.str.40 = private unnamed_addr constant [45 x i8] c"One of the arguments' values is out of range\00", align 1
@.str.41 = private unnamed_addr constant [45 x i8] c"Unsupported format or combination of formats\00", align 1
@.str.42 = private unnamed_addr constant [27 x i8] c"Input COI is not supported\00", align 1
@.str.43 = private unnamed_addr constant [23 x i8] c"Bad number of channels\00", align 1
@.str.44 = private unnamed_addr constant [40 x i8] c"Bad flag (parameter or structure field)\00", align 1
@.str.45 = private unnamed_addr constant [30 x i8] c"Bad parameter of type CvPoint\00", align 1
@.str.46 = private unnamed_addr constant [26 x i8] c"Bad type of mask argument\00", align 1
@.str.47 = private unnamed_addr constant [14 x i8] c"Parsing error\00", align 1
@.str.48 = private unnamed_addr constant [40 x i8] c"The function/feature is not implemented\00", align 1
@.str.49 = private unnamed_addr constant [32 x i8] c"Memory block has been corrupted\00", align 1
@.str.50 = private unnamed_addr constant [17 x i8] c"Assertion failed\00", align 1
@.str.51 = private unnamed_addr constant [16 x i8] c"No CUDA support\00", align 1
@.str.52 = private unnamed_addr constant [13 x i8] c"Gpu API call\00", align 1
@.str.53 = private unnamed_addr constant [18 x i8] c"No OpenGL support\00", align 1
@.str.54 = private unnamed_addr constant [16 x i8] c"OpenGL API call\00", align 1
@.str.55 = private unnamed_addr constant [19 x i8] c"Unknown %s code %d\00", align 1
@.str.56 = private unnamed_addr constant [7 x i8] c"status\00", align 1
@.str.57 = private unnamed_addr constant [6 x i8] c"error\00", align 1

; Function Attrs: mustprogress nounwind uwtable
define ptr @cvErrorStr(i32 noundef %0) #5 {
  %2 = alloca ptr, align 8
  %3 = alloca i32, align 4
  store i32 %0, ptr %3, align 4, !tbaa !29
  %4 = load i32, ptr %3, align 4, !tbaa !29
  switch i32 %4, label %37 [
    i32 0, label %5
    i32 -1, label %6
    i32 -2, label %7
    i32 -3, label %8
    i32 -4, label %9
    i32 -5, label %10
    i32 -7, label %11
    i32 -8, label %12
    i32 -201, label %13
    i32 -27, label %14
    i32 -202, label %15
    i32 -13, label %16
    i32 -203, label %17
    i32 -204, label %18
    i32 -17, label %19
    i32 -205, label %20
    i32 -209, label %21
    i32 -211, label %22
    i32 -210, label %23
    i32 -24, label %24
    i32 -15, label %25
    i32 -206, label %26
    i32 -207, label %27
    i32 -208, label %28
    i32 -212, label %29
    i32 -213, label %30
    i32 -214, label %31
    i32 -215, label %32
    i32 -216, label %33
    i32 -217, label %34
    i32 -218, label %35
    i32 -219, label %36
  ]

5:                                                ; preds = %1
  store ptr @.str.23, ptr %2, align 8
  br label %43

6:                                                ; preds = %1
  store ptr @.str.24, ptr %2, align 8
  br label %43

7:                                                ; preds = %1
  store ptr @.str.25, ptr %2, align 8
  br label %43

8:                                                ; preds = %1
  store ptr @.str.26, ptr %2, align 8
  br label %43

9:                                                ; preds = %1
  store ptr @.str.27, ptr %2, align 8
  br label %43

10:                                               ; preds = %1
  store ptr @.str.28, ptr %2, align 8
  br label %43

11:                                               ; preds = %1
  store ptr @.str.29, ptr %2, align 8
  br label %43

12:                                               ; preds = %1
  store ptr @.str.30, ptr %2, align 8
  br label %43

13:                                               ; preds = %1
  store ptr @.str.31, ptr %2, align 8
  br label %43

14:                                               ; preds = %1
  store ptr @.str.32, ptr %2, align 8
  br label %43

15:                                               ; preds = %1
  store ptr @.str.33, ptr %2, align 8
  br label %43

16:                                               ; preds = %1
  store ptr @.str.34, ptr %2, align 8
  br label %43

17:                                               ; preds = %1
  store ptr @.str.35, ptr %2, align 8
  br label %43

18:                                               ; preds = %1
  store ptr @.str.36, ptr %2, align 8
  br label %43

19:                                               ; preds = %1
  store ptr @.str.37, ptr %2, align 8
  br label %43

20:                                               ; preds = %1
  store ptr @.str.38, ptr %2, align 8
  br label %43

21:                                               ; preds = %1
  store ptr @.str.39, ptr %2, align 8
  br label %43

22:                                               ; preds = %1
  store ptr @.str.40, ptr %2, align 8
  br label %43

23:                                               ; preds = %1
  store ptr @.str.41, ptr %2, align 8
  br label %43

24:                                               ; preds = %1
  store ptr @.str.42, ptr %2, align 8
  br label %43

25:                                               ; preds = %1
  store ptr @.str.43, ptr %2, align 8
  br label %43

26:                                               ; preds = %1
  store ptr @.str.44, ptr %2, align 8
  br label %43

27:                                               ; preds = %1
  store ptr @.str.45, ptr %2, align 8
  br label %43

28:                                               ; preds = %1
  store ptr @.str.46, ptr %2, align 8
  br label %43

29:                                               ; preds = %1
  store ptr @.str.47, ptr %2, align 8
  br label %43

30:                                               ; preds = %1
  store ptr @.str.48, ptr %2, align 8
  br label %43

31:                                               ; preds = %1
  store ptr @.str.49, ptr %2, align 8
  br label %43

32:                                               ; preds = %1
  store ptr @.str.50, ptr %2, align 8
  br label %43

33:                                               ; preds = %1
  store ptr @.str.51, ptr %2, align 8
  br label %43

34:                                               ; preds = %1
  store ptr @.str.52, ptr %2, align 8
  br label %43

35:                                               ; preds = %1
  store ptr @.str.53, ptr %2, align 8
  br label %43

36:                                               ; preds = %1
  store ptr @.str.54, ptr %2, align 8
  br label %43

37:                                               ; preds = %1
  %38 = load i32, ptr %3, align 4, !tbaa !29
  %39 = icmp sge i32 %38, 0
  %40 = select i1 %39, ptr @.str.56, ptr @.str.57
  %41 = load i32, ptr %3, align 4, !tbaa !29
  %42 = call i32 (ptr, i64, ptr, ...) @snprintf(ptr noundef @_ZZ10cvErrorStrE3buf, i64 noundef 256, ptr noundef @.str.55, ptr noundef %40, i32 noundef %41) #3
  store ptr @_ZZ10cvErrorStrE3buf, ptr %2, align 8
  br label %43

43:                                               ; preds = %37, %36, %35, %34, %33, %32, %31, %30, %29, %28, %27, %26, %25, %24, %23, %22, %21, %20, %19, %18, %17, %16, %15, %14, %13, %12, %11, %10, %9, %8, %7, %6, %5
  %44 = load ptr, ptr %2, align 8
  ret ptr %44
}