; Function Attrs: mustprogress nofree nounwind uwtable
define noundef nonnull ptr @cvErrorStr(i32 noundef %0) local_unnamed_addr #13 {
  switch i32 %0, label %33 [
    i32 0, label %37
    i32 -1, label %2
    i32 -2, label %3
    i32 -3, label %4
    i32 -4, label %5
    i32 -5, label %6
    i32 -7, label %7
    i32 -8, label %8
    i32 -201, label %9
    i32 -27, label %10
    i32 -202, label %11
    i32 -13, label %12
    i32 -203, label %13
    i32 -204, label %14
    i32 -17, label %15
    i32 -205, label %16
    i32 -209, label %17
    i32 -211, label %18
    i32 -210, label %19
    i32 -24, label %20
    i32 -15, label %21
    i32 -206, label %22
    i32 -207, label %23
    i32 -208, label %24
    i32 -212, label %25
    i32 -213, label %26
    i32 -214, label %27
    i32 -215, label %28
    i32 -216, label %29
    i32 -217, label %30
    i32 -218, label %31
    i32 -219, label %32
  ]

2:                                                ; preds = %1
  br label %37

3:                                                ; preds = %1
  br label %37

4:                                                ; preds = %1
  br label %37

5:                                                ; preds = %1
  br label %37

6:                                                ; preds = %1
  br label %37

7:                                                ; preds = %1
  br label %37

8:                                                ; preds = %1
  br label %37

9:                                                ; preds = %1
  br label %37

10:                                               ; preds = %1
  br label %37

11:                                               ; preds = %1
  br label %37

12:                                               ; preds = %1
  br label %37

13:                                               ; preds = %1
  br label %37

14:                                               ; preds = %1
  br label %37

15:                                               ; preds = %1
  br label %37

16:                                               ; preds = %1
  br label %37

17:                                               ; preds = %1
  br label %37

18:                                               ; preds = %1
  br label %37

19:                                               ; preds = %1
  br label %37

20:                                               ; preds = %1
  br label %37

21:                                               ; preds = %1
  br label %37

22:                                               ; preds = %1
  br label %37

23:                                               ; preds = %1
  br label %37

24:                                               ; preds = %1
  br label %37

25:                                               ; preds = %1
  br label %37

26:                                               ; preds = %1
  br label %37

27:                                               ; preds = %1
  br label %37

28:                                               ; preds = %1
  br label %37

29:                                               ; preds = %1
  br label %37

30:                                               ; preds = %1
  br label %37

31:                                               ; preds = %1
  br label %37

32:                                               ; preds = %1
  br label %37

33:                                               ; preds = %1
  %34 = icmp sgt i32 %0, -1
  %35 = select i1 %34, ptr @.str.56, ptr @.str.57
  %36 = tail call i32 (ptr, i64, ptr, ...) @snprintf(ptr noundef nonnull dereferenceable(1) @_ZZ10cvErrorStrE3buf, i64 noundef 256, ptr noundef nonnull @.str.55, ptr noundef nonnull %35, i32 noundef %0) #34
  br label %37

37:                                               ; preds = %1, %33, %32, %31, %30, %29, %28, %27, %26, %25, %24, %23, %22, %21, %20, %19, %18, %17, %16, %15, %14, %13, %12, %11, %10, %9, %8, %7, %6, %5, %4, %3, %2
  %.0 = phi ptr [ @_ZZ10cvErrorStrE3buf, %33 ], [ @.str.54, %32 ], [ @.str.53, %31 ], [ @.str.52, %30 ], [ @.str.51, %29 ], [ @.str.50, %28 ], [ @.str.49, %27 ], [ @.str.48, %26 ], [ @.str.47, %25 ], [ @.str.46, %24 ], [ @.str.45, %23 ], [ @.str.44, %22 ], [ @.str.43, %21 ], [ @.str.42, %20 ], [ @.str.41, %19 ], [ @.str.40, %18 ], [ @.str.39, %17 ], [ @.str.38, %16 ], [ @.str.37, %15 ], [ @.str.36, %14 ], [ @.str.35, %13 ], [ @.str.34, %12 ], [ @.str.33, %11 ], [ @.str.32, %10 ], [ @.str.31, %9 ], [ @.str.30, %8 ], [ @.str.29, %7 ], [ @.str.28, %6 ], [ @.str.27, %5 ], [ @.str.26, %4 ], [ @.str.25, %3 ], [ @.str.24, %2 ], [ @.str.23, %1 ]
  ret ptr %.0
}